Certificate:
    Data:
        Version: 3 (0x2)
        Serial Number: 2 (0x2)
        Signature Algorithm: sha1WithRSAEncryption
        Issuer: DC=org, DC=iShare, O=iShare Inc, OU=iShare Signing CA, CN=iShare Signing CA
        Validity
            Not Before: May  6 20:59:58 2020 GMT
            Not After : May  6 20:59:58 2022 GMT
        Subject: DC=iShare, DC=iShare, DC=iShare, O=iShare Inc, OU=iShare Signing CA, CN=Door Delivery App
        Subject Public Key Info:
            Public Key Algorithm: rsaEncryption
                RSA Public-Key: (2048 bit)
                Modulus:
                    00:c9:04:d3:b5:2a:34:df:b7:0c:c8:b7:5a:50:69:
                    cb:2c:4f:87:de:23:85:8c:5f:ef:af:1b:82:bb:ef:
                    5c:69:64:85:56:f4:01:2b:7b:93:a3:0a:70:24:ed:
                    44:f2:03:c4:15:4f:b7:15:d1:03:d5:eb:d5:a5:62:
                    6a:3a:ba:6f:65:67:7c:37:ea:44:5c:bb:c7:85:a6:
                    f8:ce:84:87:f5:f8:57:d1:f2:86:51:ee:ac:27:84:
                    ca:ca:d0:6a:f2:d7:34:88:a5:21:6f:2a:13:fc:dc:
                    09:ec:b7:5d:2e:37:46:c1:7d:63:3c:c5:d8:49:fc:
                    02:d8:70:95:0f:42:85:08:c7:39:3b:1c:1b:48:c3:
                    a7:38:9c:3c:fc:93:50:90:76:3d:dd:27:41:d0:c8:
                    00:73:e9:74:4f:21:3d:47:56:a9:26:45:38:bc:55:
                    5c:cd:58:cf:06:a7:51:50:ec:e5:01:2f:e8:4a:8d:
                    f5:b7:5c:e9:ff:5b:ed:d1:8f:82:dc:03:f6:53:5a:
                    4c:b3:67:69:aa:a0:3b:24:99:12:38:c6:e5:7e:07:
                    1f:17:51:2d:2e:e8:30:82:96:41:99:6c:5b:82:c7:
                    30:e7:21:b6:30:3f:bd:d1:0e:00:25:17:9b:58:28:
                    10:a4:b0:c5:ea:eb:ee:5e:29:71:69:ed:91:c4:6f:
                    9f:89
                Exponent: 65537 (0x10001)
        X509v3 extensions:
            X509v3 Key Usage: critical
                Digital Signature, Non Repudiation, Key Encipherment
            X509v3 Basic Constraints: 
                CA:FALSE
            X509v3 Subject Key Identifier: 
                9C:A8:B0:BA:E6:C9:E8:8B:B1:C4:86:3C:AB:59:5F:6F:46:86:04:FC
            X509v3 Authority Key Identifier: 
                keyid:7C:B8:E3:0A:9F:7B:DF:FE:21:82:45:C5:4A:FC:47:FF:14:8C:D9:EB

            X509v3 Subject Alternative Name: 
                DNS:serviceprovider
    Signature Algorithm: sha1WithRSAEncryption
         4d:e4:aa:7c:9b:c5:4a:a8:1c:e6:93:28:b5:b7:73:2a:56:fd:
         1f:f6:1e:a8:59:27:f0:6d:05:82:e3:a0:74:dc:0f:70:ae:d1:
         9b:6c:de:ac:fd:da:21:41:c8:aa:e2:fc:ea:88:51:61:98:31:
         db:8a:3a:f4:07:b1:24:19:97:8c:74:5f:7a:29:03:38:0c:73:
         18:07:cb:7e:de:60:8e:cb:61:5b:0d:50:71:fc:6c:4a:37:9e:
         03:4a:03:1d:47:a8:1c:d5:72:96:94:8b:ee:4f:b2:dd:74:07:
         07:a1:a7:98:10:0e:50:f5:ce:e3:b7:18:35:63:b2:2a:0f:16:
         82:ff:97:c9:b1:dc:e6:13:af:27:2f:26:5f:1d:5c:e9:43:a5:
         d4:41:e8:22:7d:70:bc:20:fa:73:d4:2e:59:dd:19:b2:0f:f8:
         fd:6f:cf:ae:3b:7b:3e:5a:aa:e3:7c:a0:3b:c3:80:2a:48:7b:
         00:f8:eb:08:04:b5:d9:c2:11:3e:ea:59:29:81:34:16:2c:ad:
         39:ac:59:8b:36:db:97:fb:c1:18:2e:5d:43:50:7d:57:b4:58:
         b3:c2:b5:ec:10:7f:2d:f2:70:38:c3:be:b2:ee:d2:9d:c1:25:
         0e:27:e6:53:12:54:5b:e7:40:b7:f6:18:b1:c8:1d:1d:9a:22:
         76:ae:c4:64
-----BEGIN CERTIFICATE-----
MIIEBDCCAuygAwIBAgIBAjANBgkqhkiG9w0BAQUFADB6MRMwEQYKCZImiZPyLGQB
GRYDb3JnMRYwFAYKCZImiZPyLGQBGRYGaVNoYXJlMRMwEQYDVQQKDAppU2hhcmUg
SW5jMRowGAYDVQQLDBFpU2hhcmUgU2lnbmluZyBDQTEaMBgGA1UEAwwRaVNoYXJl
IFNpZ25pbmcgQ0EwHhcNMjAwNTA2MjA1OTU4WhcNMjIwNTA2MjA1OTU4WjCBlTEW
MBQGCgmSJomT8ixkARkWBmlTaGFyZTEWMBQGCgmSJomT8ixkARkWBmlTaGFyZTEW
MBQGCgmSJomT8ixkARkWBmlTaGFyZTETMBEGA1UECgwKaVNoYXJlIEluYzEaMBgG
A1UECwwRaVNoYXJlIFNpZ25pbmcgQ0ExGjAYBgNVBAMMEURvb3IgRGVsaXZlcnkg
QXBwMIIBIjANBgkqhkiG9w0BAQEFAAOCAQ8AMIIBCgKCAQEAyQTTtSo037cMyLda
UGnLLE+H3iOFjF/vrxuCu+9caWSFVvQBK3uTowpwJO1E8gPEFU+3FdED1evVpWJq
OrpvZWd8N+pEXLvHhab4zoSH9fhX0fKGUe6sJ4TKytBq8tc0iKUhbyoT/NwJ7Ldd
LjdGwX1jPMXYSfwC2HCVD0KFCMc5OxwbSMOnOJw8/JNQkHY93SdB0MgAc+l0TyE9
R1apJkU4vFVczVjPBqdRUOzlAS/oSo31t1zp/1vt0Y+C3AP2U1pMs2dpqqA7JJkS
OMblfgcfF1EtLugwgpZBmWxbgscw5yG2MD+90Q4AJRebWCgQpLDF6uvuXilxae2R
xG+fiQIDAQABo3kwdzAOBgNVHQ8BAf8EBAMCBeAwCQYDVR0TBAIwADAdBgNVHQ4E
FgQUnKiwuubJ6IuxxIY8q1lfb0aGBPwwHwYDVR0jBBgwFoAUfLjjCp973/4hgkXF
SvxH/xSM2eswGgYDVR0RBBMwEYIPc2VydmljZXByb3ZpZGVyMA0GCSqGSIb3DQEB
BQUAA4IBAQBN5Kp8m8VKqBzmkyi1t3MqVv0f9h6oWSfwbQWC46B03A9wrtGbbN6s
/dohQciq4vzqiFFhmDHbijr0B7EkGZeMdF96KQM4DHMYB8t+3mCOy2FbDVBx/GxK
N54DSgMdR6gc1XKWlIvuT7LddAcHoaeYEA5Q9c7jtxg1Y7IqDxaC/5fJsdzmE68n
LyZfHVzpQ6XUQegifXC8IPpz1C5Z3RmyD/j9b8+uO3s+WqrjfKA7w4AqSHsA+OsI
BLXZwhE+6lkpgTQWLK05rFmLNtuX+8EYLl1DUH1XtFizwrXsEH8t8nA4w76y7tKd
wSUOJ+ZTElRb50C39hixyB0dmiJ2rsRk
-----END CERTIFICATE-----
