Certificate:
    Data:
        Version: 3 (0x2)
        Serial Number: 4 (0x4)
        Signature Algorithm: sha1WithRSAEncryption
        Issuer: DC=org, DC=iShare, O=iShare Inc, OU=iShare Signing CA, CN=iShare Signing CA
        Validity
            Not Before: May  7 16:24:45 2020 GMT
            Not After : May  7 16:24:45 2022 GMT
        Subject: DC=org, DC=iShare, DC=iShare, O=iShare Inc, OU=iShare Signing CA, CN=Same Hour Delivery App
        Subject Public Key Info:
            Public Key Algorithm: rsaEncryption
                RSA Public-Key: (2048 bit)
                Modulus:
                    00:c1:9d:0f:35:04:98:08:4f:86:1b:85:06:d9:30:
                    cb:71:27:e0:20:f7:20:80:7d:2e:a7:33:ef:42:f4:
                    02:94:df:b1:20:27:3b:28:6d:b7:54:21:0d:66:62:
                    d4:a2:71:cd:77:1c:0f:d2:8b:09:6e:9d:a9:ff:cf:
                    69:50:4e:a7:9d:c2:9d:97:7d:35:08:1e:48:b8:62:
                    73:09:5d:9a:15:15:0b:84:cb:85:32:0c:a9:ca:72:
                    09:3f:61:6a:ff:89:3c:08:e6:8b:a2:0b:3e:f0:e1:
                    86:dc:e2:4f:9c:a9:f8:ca:c1:02:05:16:5c:a5:1d:
                    d9:9e:bf:0b:86:41:27:38:9d:52:62:8c:cc:30:ec:
                    64:ee:98:56:cf:0a:c4:39:c8:cd:94:59:a3:6d:52:
                    c2:49:0e:3f:6a:93:61:a4:95:03:b4:67:63:a0:0b:
                    20:4a:47:61:90:68:a0:4f:0d:ff:90:0f:e9:8f:ed:
                    3e:07:23:d6:4a:3e:01:18:9e:63:d7:af:0c:05:0f:
                    26:21:f4:5a:c0:47:c0:4b:96:34:28:f7:29:0d:69:
                    00:a1:13:0b:c4:c5:14:33:69:01:53:cc:bf:81:ea:
                    b8:22:9b:66:6a:6e:12:ac:d4:a3:d7:c8:6f:01:21:
                    2f:c9:c3:79:60:74:8c:fb:61:31:59:3c:ad:8f:a2:
                    a3:0b
                Exponent: 65537 (0x10001)
        X509v3 extensions:
            X509v3 Key Usage: critical
                Digital Signature, Non Repudiation, Key Encipherment
            X509v3 Basic Constraints: 
                CA:FALSE
            X509v3 Subject Key Identifier: 
                C2:3F:61:30:1C:3C:3F:9F:3B:68:90:08:0D:93:19:FB:E1:3A:CF:A7
            X509v3 Authority Key Identifier: 
                keyid:7C:B8:E3:0A:9F:7B:DF:FE:21:82:45:C5:4A:FC:47:FF:14:8C:D9:EB

            X509v3 Subject Alternative Name: 
                DNS:serviceprovider
    Signature Algorithm: sha1WithRSAEncryption
         49:67:e8:6b:3e:38:d8:b2:f1:be:20:24:f3:80:71:9f:15:36:
         ed:28:74:34:bc:9f:c0:b3:ec:b3:92:04:7f:d0:bd:b4:96:02:
         e2:a5:df:36:94:a5:0a:9a:b0:b1:8d:71:41:f6:f9:e1:45:e5:
         c0:ac:73:0b:8c:71:82:9a:23:ba:7a:9b:47:af:c6:b9:d1:6a:
         d5:c7:14:f8:62:65:9e:40:b6:41:84:00:87:d9:20:84:fa:2a:
         0d:72:f9:e9:5d:23:8b:26:2d:30:12:9d:cd:41:98:18:e5:f0:
         ac:c0:bf:a2:60:ec:bb:82:f6:ac:fb:b8:9b:e1:cc:30:c8:be:
         37:11:6e:93:06:0d:e0:e5:33:94:aa:fc:07:59:88:60:af:bc:
         ae:00:d0:58:15:56:5a:f7:f1:09:e7:62:39:a0:e9:75:c6:6f:
         38:c1:67:31:0b:ad:8b:c0:56:4c:b4:48:af:bc:d5:99:87:e7:
         dd:ef:75:c8:71:b9:a1:0f:e6:7f:f2:91:29:3f:24:be:3d:44:
         d9:08:0d:2d:21:a5:14:84:53:c2:61:03:cc:dc:6a:d0:c3:99:
         01:cd:34:c5:eb:0a:b0:76:20:40:b4:a0:e2:f3:e2:62:20:51:
         01:7a:37:dd:52:67:d8:5f:9b:38:60:8c:8c:7d:17:9c:4f:73:
         6f:22:48:b6
-----BEGIN CERTIFICATE-----
MIIEBjCCAu6gAwIBAgIBBDANBgkqhkiG9w0BAQUFADB6MRMwEQYKCZImiZPyLGQB
GRYDb3JnMRYwFAYKCZImiZPyLGQBGRYGaVNoYXJlMRMwEQYDVQQKDAppU2hhcmUg
SW5jMRowGAYDVQQLDBFpU2hhcmUgU2lnbmluZyBDQTEaMBgGA1UEAwwRaVNoYXJl
IFNpZ25pbmcgQ0EwHhcNMjAwNTA3MTYyNDQ1WhcNMjIwNTA3MTYyNDQ1WjCBlzET
MBEGCgmSJomT8ixkARkWA29yZzEWMBQGCgmSJomT8ixkARkWBmlTaGFyZTEWMBQG
CgmSJomT8ixkARkWBmlTaGFyZTETMBEGA1UECgwKaVNoYXJlIEluYzEaMBgGA1UE
CwwRaVNoYXJlIFNpZ25pbmcgQ0ExHzAdBgNVBAMMFlNhbWUgSG91ciBEZWxpdmVy
eSBBcHAwggEiMA0GCSqGSIb3DQEBAQUAA4IBDwAwggEKAoIBAQDBnQ81BJgIT4Yb
hQbZMMtxJ+Ag9yCAfS6nM+9C9AKU37EgJzsobbdUIQ1mYtSicc13HA/Siwlunan/
z2lQTqedwp2XfTUIHki4YnMJXZoVFQuEy4UyDKnKcgk/YWr/iTwI5ouiCz7w4Ybc
4k+cqfjKwQIFFlylHdmevwuGQSc4nVJijMww7GTumFbPCsQ5yM2UWaNtUsJJDj9q
k2GklQO0Z2OgCyBKR2GQaKBPDf+QD+mP7T4HI9ZKPgEYnmPXrwwFDyYh9FrAR8BL
ljQo9ykNaQChEwvExRQzaQFTzL+B6rgim2ZqbhKs1KPXyG8BIS/Jw3lgdIz7YTFZ
PK2PoqMLAgMBAAGjeTB3MA4GA1UdDwEB/wQEAwIF4DAJBgNVHRMEAjAAMB0GA1Ud
DgQWBBTCP2EwHDw/nztokAgNkxn74TrPpzAfBgNVHSMEGDAWgBR8uOMKn3vf/iGC
RcVK/Ef/FIzZ6zAaBgNVHREEEzARgg9zZXJ2aWNlcHJvdmlkZXIwDQYJKoZIhvcN
AQEFBQADggEBAEln6Gs+ONiy8b4gJPOAcZ8VNu0odDS8n8Cz7LOSBH/QvbSWAuKl
3zaUpQqasLGNcUH2+eFF5cCscwuMcYKaI7p6m0evxrnRatXHFPhiZZ5AtkGEAIfZ
IIT6Kg1y+eldI4smLTASnc1BmBjl8KzAv6Jg7LuC9qz7uJvhzDDIvjcRbpMGDeDl
M5Sq/AdZiGCvvK4A0FgVVlr38QnnYjmg6XXGbzjBZzELrYvAVky0SK+81ZmH593v
dchxuaEP5n/ykSk/JL49RNkIDS0hpRSEU8JhA8zcatDDmQHNNMXrCrB2IEC0oOLz
4mIgUQF6N91SZ9hfmzhgjIx9F5xPc28iSLY=
-----END CERTIFICATE-----
