Certificate:
    Data:
        Version: 3 (0x2)
        Serial Number: 2 (0x2)
        Signature Algorithm: sha1WithRSAEncryption
        Issuer: DC=org, DC=iShare, O=iShare Inc, OU=iShare Root CA, CN=iShare Root CA
        Validity
            Not Before: May  6 20:50:43 2020 GMT
            Not After : May  6 20:50:43 2030 GMT
        Subject: DC=org, DC=iShare, O=iShare Inc, OU=iShare Signing CA, CN=iShare Signing CA
        Subject Public Key Info:
            Public Key Algorithm: rsaEncryption
                RSA Public-Key: (2048 bit)
                Modulus:
                    00:c2:2f:f4:57:41:45:e4:9a:41:1a:d8:61:ca:d7:
                    ec:21:de:a5:e8:57:d4:13:89:c3:a6:89:43:e5:62:
                    b0:1d:ca:84:45:d1:21:e4:b7:3b:d7:eb:2c:ec:4c:
                    88:da:fe:75:de:15:d3:68:3b:18:44:e5:9b:36:52:
                    3f:5d:6c:33:99:a3:3d:6a:de:19:cf:2b:3f:ca:13:
                    54:d4:70:55:06:96:b2:2e:1c:0e:20:18:39:4d:ce:
                    df:ed:a4:be:d4:16:79:e1:c0:be:db:c1:e4:83:2a:
                    51:dd:30:f8:2b:2a:83:55:a6:2c:5b:30:5d:2f:c4:
                    f7:e3:90:f0:32:a1:b2:d3:ae:9f:fc:89:28:27:74:
                    96:a0:82:4a:c6:4a:8c:b2:43:f1:6f:b9:32:08:4f:
                    f0:06:59:73:b8:de:f9:6b:6d:39:be:38:f2:91:8d:
                    83:02:57:0c:fd:1b:0a:7c:1a:6a:1f:fc:62:c4:dc:
                    f9:3f:ca:d4:32:77:88:4a:a0:f7:f2:c6:96:cb:51:
                    12:f0:4c:7f:d9:d6:3f:62:22:3c:01:81:2c:61:14:
                    9e:55:ca:48:82:83:ce:b4:eb:a0:2c:26:42:b2:59:
                    84:c5:a9:81:6c:b5:09:74:b7:c7:89:c2:e9:f0:cf:
                    33:4f:bf:13:f5:db:23:53:bc:39:c5:12:4c:58:50:
                    13:41
                Exponent: 65537 (0x10001)
        X509v3 extensions:
            X509v3 Key Usage: critical
                Certificate Sign, CRL Sign
            X509v3 Basic Constraints: critical
                CA:TRUE, pathlen:0
            X509v3 Subject Key Identifier: 
                7C:B8:E3:0A:9F:7B:DF:FE:21:82:45:C5:4A:FC:47:FF:14:8C:D9:EB
            X509v3 Authority Key Identifier: 
                keyid:18:86:A9:52:A1:F7:52:7D:DB:74:C0:A2:59:E9:F1:6C:B0:07:4C:A7

    Signature Algorithm: sha1WithRSAEncryption
         b2:b3:3c:36:fc:b0:4e:69:e9:50:3f:bf:7c:e4:72:fc:e2:3c:
         75:22:10:d7:5e:c0:b5:16:b2:03:63:9c:0b:61:ef:92:08:4a:
         91:02:59:05:68:69:a1:77:91:cf:f7:66:95:fa:ff:99:ff:08:
         be:ec:ff:37:e8:44:0e:92:6a:5b:30:98:ad:3a:76:ca:70:aa:
         ac:dc:fc:20:1d:fd:37:15:e9:8f:f2:64:a8:29:a7:d3:41:c8:
         90:40:4d:b6:64:13:23:6f:b8:d1:99:ea:56:86:a3:42:7f:99:
         dc:54:99:ea:eb:aa:9f:26:56:a7:bb:26:fe:fc:c6:89:37:4b:
         21:10:60:2f:64:fe:1b:80:95:a0:01:55:c5:d7:c5:34:35:94:
         c3:2f:21:97:cf:45:43:1f:28:2f:58:18:6c:68:38:c3:87:1f:
         4f:f5:ec:86:52:ed:1a:3b:cb:8d:37:7a:60:20:ff:e0:25:32:
         43:c9:a9:db:e9:3d:39:0d:12:4b:3f:df:79:b6:68:ec:5b:3e:
         4c:2c:38:4d:48:2d:3c:d9:c1:5f:f2:86:a2:a5:0a:6d:ae:54:
         08:84:88:44:9b:38:28:d5:b3:a0:a1:38:7c:80:09:eb:52:f4:
         20:1a:a2:2b:10:ef:59:70:d5:44:6c:0b:b9:a5:7a:f6:15:57:
         ff:98:04:ae
-----BEGIN CERTIFICATE-----
MIIDzzCCAregAwIBAgIBAjANBgkqhkiG9w0BAQUFADB0MRMwEQYKCZImiZPyLGQB
GRYDb3JnMRYwFAYKCZImiZPyLGQBGRYGaVNoYXJlMRMwEQYDVQQKDAppU2hhcmUg
SW5jMRcwFQYDVQQLDA5pU2hhcmUgUm9vdCBDQTEXMBUGA1UEAwwOaVNoYXJlIFJv
b3QgQ0EwHhcNMjAwNTA2MjA1MDQzWhcNMzAwNTA2MjA1MDQzWjB6MRMwEQYKCZIm
iZPyLGQBGRYDb3JnMRYwFAYKCZImiZPyLGQBGRYGaVNoYXJlMRMwEQYDVQQKDApp
U2hhcmUgSW5jMRowGAYDVQQLDBFpU2hhcmUgU2lnbmluZyBDQTEaMBgGA1UEAwwR
aVNoYXJlIFNpZ25pbmcgQ0EwggEiMA0GCSqGSIb3DQEBAQUAA4IBDwAwggEKAoIB
AQDCL/RXQUXkmkEa2GHK1+wh3qXoV9QTicOmiUPlYrAdyoRF0SHktzvX6yzsTIja
/nXeFdNoOxhE5Zs2Uj9dbDOZoz1q3hnPKz/KE1TUcFUGlrIuHA4gGDlNzt/tpL7U
FnnhwL7bweSDKlHdMPgrKoNVpixbMF0vxPfjkPAyobLTrp/8iSgndJaggkrGSoyy
Q/FvuTIIT/AGWXO43vlrbTm+OPKRjYMCVwz9Gwp8Gmof/GLE3Pk/ytQyd4hKoPfy
xpbLURLwTH/Z1j9iIjwBgSxhFJ5VykiCg86066AsJkKyWYTFqYFstQl0t8eJwunw
zzNPvxP12yNTvDnFEkxYUBNBAgMBAAGjZjBkMA4GA1UdDwEB/wQEAwIBBjASBgNV
HRMBAf8ECDAGAQH/AgEAMB0GA1UdDgQWBBR8uOMKn3vf/iGCRcVK/Ef/FIzZ6zAf
BgNVHSMEGDAWgBQYhqlSofdSfdt0wKJZ6fFssAdMpzANBgkqhkiG9w0BAQUFAAOC
AQEAsrM8NvywTmnpUD+/fORy/OI8dSIQ117AtRayA2OcC2HvkghKkQJZBWhpoXeR
z/dmlfr/mf8Ivuz/N+hEDpJqWzCYrTp2ynCqrNz8IB39NxXpj/JkqCmn00HIkEBN
tmQTI2+40ZnqVoajQn+Z3FSZ6uuqnyZWp7sm/vzGiTdLIRBgL2T+G4CVoAFVxdfF
NDWUwy8hl89FQx8oL1gYbGg4w4cfT/XshlLtGjvLjTd6YCD/4CUyQ8mp2+k9OQ0S
Sz/febZo7Fs+TCw4TUgtPNnBX/KGoqUKba5UCISIRJs4KNWzoKE4fIAJ61L0IBqi
KxDvWXDVRGwLuaV69hVX/5gErg==
-----END CERTIFICATE-----
